; Function Attrs: mustprogress nounwind uwtable
define hidden noundef i64 @_ZN24CgroupV1MemoryController20cache_usage_in_bytesEv(ptr noundef nonnull align 8 dereferenceable(56) %0) unnamed_addr #0 align 2 {
  %2 = alloca i64, align 8
  %3 = getelementptr inbounds i8, ptr %0, i64 8
  %4 = call noundef zeroext i1 @_ZN16CgroupController24read_numerical_key_valueEPKcS1_Pm(ptr noundef nonnull align 8 dereferenceable(8) %3, ptr noundef nonnull @.str.11, ptr noundef nonnull @.str.39, ptr noundef nonnull %2) #7
  br i1 %4, label %5, label %11

5:                                                ; preds = %1
  %6 = load volatile ptr, ptr getelementptr inbounds (i8, ptr @_ZN16LogTagSetMappingILN6LogTag4typeE105ELS1_25ELS1_0ELS1_0ELS1_0ELS1_0EE7_tagsetE, i64 48), align 8
  %.not = icmp eq ptr %6, null
  br i1 %.not, label %9, label %7

7:                                                ; preds = %5
  %8 = load i64, ptr %2, align 8
  call void (ptr, ...) @_ZN7LogImplILN6LogTag4typeE105ELS1_25ELS1_0ELS1_0ELS1_0ELS1_0EE5writeILN8LogLevel4typeE1EEEvPKcz(ptr noundef nonnull @.str.40, i64 noundef %8)
  br label %9

9:                                                ; preds = %5, %7
  %10 = load i64, ptr %2, align 8
  br label %11

11:                                               ; preds = %1, %9
  %.0 = phi i64 [ %10, %9 ], [ -2, %1 ]
  ret i64 %.0
}